; Function Attrs: mustprogress nofree norecurse nosync nounwind willreturn memory(read, inaccessiblemem: none) uwtable
define noundef i32 @_ZNK10open_spiel18twenty_forty_eight21TwentyFortyEightState18AvailableCellCountEv(ptr noundef nonnull readonly align 8 captures(none) dereferenceable(120) %0) local_unnamed_addr #7 align 2 {
  %2 = getelementptr inbounds nuw i8, ptr %0, i64 80
  %3 = load ptr, ptr %2, align 8
  br label %.preheader

.preheader:                                       ; preds = %1, %8
  %indvars.iv15 = phi i64 [ 0, %1 ], [ %indvars.iv.next16, %8 ]
  %.013 = phi i32 [ 0, %1 ], [ %spec.select, %8 ]
  %.idx = shl nsw i64 %indvars.iv15, 5
  %invariant.gep = getelementptr inbounds nuw i8, ptr %3, i64 %.idx
  br label %4

4:                                                ; preds = %.preheader, %4
  %indvars.iv = phi i64 [ 0, %.preheader ], [ %indvars.iv.next, %4 ]
  %.111 = phi i32 [ %.013, %.preheader ], [ %spec.select, %4 ]
  %gep = getelementptr inbounds nuw %"struct.open_spiel::twenty_forty_eight::Tile", ptr %invariant.gep, i64 %indvars.iv
  %.sroa.0.0.copyload.i = load i64, ptr %gep, align 4
  %5 = and i64 %.sroa.0.0.copyload.i, 4294967295
  %6 = icmp eq i64 %5, 0
  %7 = zext i1 %6 to i32
  %spec.select = add nsw i32 %.111, %7
  %indvars.iv.next = add nuw nsw i64 %indvars.iv, 1
  %exitcond.not = icmp eq i64 %indvars.iv.next, 4
  br i1 %exitcond.not, label %8, label %4, !llvm.loop !16

8:                                                ; preds = %4
  %indvars.iv.next16 = add nuw nsw i64 %indvars.iv15, 1
  %exitcond18.not = icmp eq i64 %indvars.iv.next16, 4
  br i1 %exitcond18.not, label %9, label %.preheader, !llvm.loop !17

9:                                                ; preds = %8
  ret i32 %spec.select
}